target datalayout = "e-m:e-p270:32:32-p271:32:32-p272:64:64-i64:64-i128:128-f80:128-n8:16:32:64-S128"
target triple = "x86_64-pc-linux-gnu"

%struct.cdf_header_t = type { i64, [2 x i64], i16, i16, i16, i16, i16, [10 x i8], i32, i32, [4 x i8], i32, i32, i32, i32, i32, [109 x i32] }

; Function Attrs: nounwind uwtable
define hidden void @cdf_unpack_header(ptr noundef %0, ptr noundef %1) #0 {
  %3 = alloca ptr, align 8
  %4 = alloca ptr, align 8
  %5 = alloca i64, align 8
  %6 = alloca i64, align 8
  store ptr %0, ptr %3, align 8, !tbaa !16
  store ptr %1, ptr %4, align 8, !tbaa !9
  call void @llvm.lifetime.start.p0(i64 8, ptr %5) #13
  call void @llvm.lifetime.start.p0(i64 8, ptr %6) #13
  store i64 0, ptr %6, align 8, !tbaa !14
  %7 = load ptr, ptr %3, align 8, !tbaa !16
  %8 = getelementptr inbounds nuw %struct.cdf_header_t, ptr %7, i32 0, i32 0
  %9 = load ptr, ptr %4, align 8, !tbaa !9
  %10 = load i64, ptr %6, align 8, !tbaa !14
  %11 = getelementptr inbounds nuw i8, ptr %9, i64 %10
  call void @llvm.memcpy.p0.p0.i64(ptr align 8 %8, ptr align 1 %11, i64 8, i1 false)
  %12 = load i64, ptr %6, align 8, !tbaa !14
  %13 = add i64 %12, 8
  store i64 %13, ptr %6, align 8, !tbaa !14
  %14 = load ptr, ptr %3, align 8, !tbaa !16
  %15 = getelementptr inbounds nuw %struct.cdf_header_t, ptr %14, i32 0, i32 1
  %16 = getelementptr inbounds [2 x i64], ptr %15, i64 0, i64 0
  %17 = load ptr, ptr %4, align 8, !tbaa !9
  %18 = load i64, ptr %6, align 8, !tbaa !14
  %19 = getelementptr inbounds nuw i8, ptr %17, i64 %18
  call void @llvm.memcpy.p0.p0.i64(ptr align 8 %16, ptr align 1 %19, i64 16, i1 false)
  %20 = load i64, ptr %6, align 8, !tbaa !14
  %21 = add i64 %20, 16
  store i64 %21, ptr %6, align 8, !tbaa !14
  %22 = load ptr, ptr %3, align 8, !tbaa !16
  %23 = getelementptr inbounds nuw %struct.cdf_header_t, ptr %22, i32 0, i32 2
  %24 = load ptr, ptr %4, align 8, !tbaa !9
  %25 = load i64, ptr %6, align 8, !tbaa !14
  %26 = getelementptr inbounds nuw i8, ptr %24, i64 %25
  call void @llvm.memcpy.p0.p0.i64(ptr align 8 %23, ptr align 1 %26, i64 2, i1 false)
  %27 = load i64, ptr %6, align 8, !tbaa !14
  %28 = add i64 %27, 2
  store i64 %28, ptr %6, align 8, !tbaa !14
  %29 = load ptr, ptr %3, align 8, !tbaa !16
  %30 = getelementptr inbounds nuw %struct.cdf_header_t, ptr %29, i32 0, i32 3
  %31 = load ptr, ptr %4, align 8, !tbaa !9
  %32 = load i64, ptr %6, align 8, !tbaa !14
  %33 = getelementptr inbounds nuw i8, ptr %31, i64 %32
  call void @llvm.memcpy.p0.p0.i64(ptr align 2 %30, ptr align 1 %33, i64 2, i1 false)
  %34 = load i64, ptr %6, align 8, !tbaa !14
  %35 = add i64 %34, 2
  store i64 %35, ptr %6, align 8, !tbaa !14
  %36 = load ptr, ptr %3, align 8, !tbaa !16
  %37 = getelementptr inbounds nuw %struct.cdf_header_t, ptr %36, i32 0, i32 4
  %38 = load ptr, ptr %4, align 8, !tbaa !9
  %39 = load i64, ptr %6, align 8, !tbaa !14
  %40 = getelementptr inbounds nuw i8, ptr %38, i64 %39
  call void @llvm.memcpy.p0.p0.i64(ptr align 4 %37, ptr align 1 %40, i64 2, i1 false)
  %41 = load i64, ptr %6, align 8, !tbaa !14
  %42 = add i64 %41, 2
  store i64 %42, ptr %6, align 8, !tbaa !14
  %43 = load ptr, ptr %3, align 8, !tbaa !16
  %44 = getelementptr inbounds nuw %struct.cdf_header_t, ptr %43, i32 0, i32 5
  %45 = load ptr, ptr %4, align 8, !tbaa !9
  %46 = load i64, ptr %6, align 8, !tbaa !14
  %47 = getelementptr inbounds nuw i8, ptr %45, i64 %46
  call void @llvm.memcpy.p0.p0.i64(ptr align 2 %44, ptr align 1 %47, i64 2, i1 false)
  %48 = load i64, ptr %6, align 8, !tbaa !14
  %49 = add i64 %48, 2
  store i64 %49, ptr %6, align 8, !tbaa !14
  %50 = load ptr, ptr %3, align 8, !tbaa !16
  %51 = getelementptr inbounds nuw %struct.cdf_header_t, ptr %50, i32 0, i32 6
  %52 = load ptr, ptr %4, align 8, !tbaa !9
  %53 = load i64, ptr %6, align 8, !tbaa !14
  %54 = getelementptr inbounds nuw i8, ptr %52, i64 %53
  call void @llvm.memcpy.p0.p0.i64(ptr align 8 %51, ptr align 1 %54, i64 2, i1 false)
  %55 = load i64, ptr %6, align 8, !tbaa !14
  %56 = add i64 %55, 2
  store i64 %56, ptr %6, align 8, !tbaa !14
  %57 = load ptr, ptr %3, align 8, !tbaa !16
  %58 = getelementptr inbounds nuw %struct.cdf_header_t, ptr %57, i32 0, i32 7
  %59 = getelementptr inbounds [10 x i8], ptr %58, i64 0, i64 0
  %60 = load ptr, ptr %4, align 8, !tbaa !9
  %61 = load i64, ptr %6, align 8, !tbaa !14
  %62 = getelementptr inbounds nuw i8, ptr %60, i64 %61
  call void @llvm.memcpy.p0.p0.i64(ptr align 2 %59, ptr align 1 %62, i64 10, i1 false)
  %63 = load i64, ptr %6, align 8, !tbaa !14
  %64 = add i64 %63, 10
  store i64 %64, ptr %6, align 8, !tbaa !14
  %65 = load ptr, ptr %3, align 8, !tbaa !16
  %66 = getelementptr inbounds nuw %struct.cdf_header_t, ptr %65, i32 0, i32 8
  %67 = load ptr, ptr %4, align 8, !tbaa !9
  %68 = load i64, ptr %6, align 8, !tbaa !14
  %69 = getelementptr inbounds nuw i8, ptr %67, i64 %68
  call void @llvm.memcpy.p0.p0.i64(ptr align 4 %66, ptr align 1 %69, i64 4, i1 false)
  %70 = load i64, ptr %6, align 8, !tbaa !14
  %71 = add i64 %70, 4
  store i64 %71, ptr %6, align 8, !tbaa !14
  %72 = load ptr, ptr %3, align 8, !tbaa !16
  %73 = getelementptr inbounds nuw %struct.cdf_header_t, ptr %72, i32 0, i32 9
  %74 = load ptr, ptr %4, align 8, !tbaa !9
  %75 = load i64, ptr %6, align 8, !tbaa !14
  %76 = getelementptr inbounds nuw i8, ptr %74, i64 %75
  call void @llvm.memcpy.p0.p0.i64(ptr align 8 %73, ptr align 1 %76, i64 4, i1 false)
  %77 = load i64, ptr %6, align 8, !tbaa !14
  %78 = add i64 %77, 4
  store i64 %78, ptr %6, align 8, !tbaa !14
  %79 = load ptr, ptr %3, align 8, !tbaa !16
  %80 = getelementptr inbounds nuw %struct.cdf_header_t, ptr %79, i32 0, i32 10
  %81 = getelementptr inbounds [4 x i8], ptr %80, i64 0, i64 0
  %82 = load ptr, ptr %4, align 8, !tbaa !9
  %83 = load i64, ptr %6, align 8, !tbaa !14
  %84 = getelementptr inbounds nuw i8, ptr %82, i64 %83
  call void @llvm.memcpy.p0.p0.i64(ptr align 4 %81, ptr align 1 %84, i64 4, i1 false)
  %85 = load i64, ptr %6, align 8, !tbaa !14
  %86 = add i64 %85, 4
  store i64 %86, ptr %6, align 8, !tbaa !14
  %87 = load ptr, ptr %3, align 8, !tbaa !16
  %88 = getelementptr inbounds nuw %struct.cdf_header_t, ptr %87, i32 0, i32 11
  %89 = load ptr, ptr %4, align 8, !tbaa !9
  %90 = load i64, ptr %6, align 8, !tbaa !14
  %91 = getelementptr inbounds nuw i8, ptr %89, i64 %90
  call void @llvm.memcpy.p0.p0.i64(ptr align 8 %88, ptr align 1 %91, i64 4, i1 false)
  %92 = load i64, ptr %6, align 8, !tbaa !14
  %93 = add i64 %92, 4
  store i64 %93, ptr %6, align 8, !tbaa !14
  %94 = load ptr, ptr %3, align 8, !tbaa !16
  %95 = getelementptr inbounds nuw %struct.cdf_header_t, ptr %94, i32 0, i32 12
  %96 = load ptr, ptr %4, align 8, !tbaa !9
  %97 = load i64, ptr %6, align 8, !tbaa !14
  %98 = getelementptr inbounds nuw i8, ptr %96, i64 %97
  call void @llvm.memcpy.p0.p0.i64(ptr align 4 %95, ptr align 1 %98, i64 4, i1 false)
  %99 = load i64, ptr %6, align 8, !tbaa !14
  %100 = add i64 %99, 4
  store i64 %100, ptr %6, align 8, !tbaa !14
  %101 = load ptr, ptr %3, align 8, !tbaa !16
  %102 = getelementptr inbounds nuw %struct.cdf_header_t, ptr %101, i32 0, i32 13
  %103 = load ptr, ptr %4, align 8, !tbaa !9
  %104 = load i64, ptr %6, align 8, !tbaa !14
  %105 = getelementptr inbounds nuw i8, ptr %103, i64 %104
  call void @llvm.memcpy.p0.p0.i64(ptr align 8 %102, ptr align 1 %105, i64 4, i1 false)
  %106 = load i64, ptr %6, align 8, !tbaa !14
  %107 = add i64 %106, 4
  store i64 %107, ptr %6, align 8, !tbaa !14
  %108 = load ptr, ptr %3, align 8, !tbaa !16
  %109 = getelementptr inbounds nuw %struct.cdf_header_t, ptr %108, i32 0, i32 14
  %110 = load ptr, ptr %4, align 8, !tbaa !9
  %111 = load i64, ptr %6, align 8, !tbaa !14
  %112 = getelementptr inbounds nuw i8, ptr %110, i64 %111
  call void @llvm.memcpy.p0.p0.i64(ptr align 4 %109, ptr align 1 %112, i64 4, i1 false)
  %113 = load i64, ptr %6, align 8, !tbaa !14
  %114 = add i64 %113, 4
  store i64 %114, ptr %6, align 8, !tbaa !14
  %115 = load ptr, ptr %3, align 8, !tbaa !16
  %116 = getelementptr inbounds nuw %struct.cdf_header_t, ptr %115, i32 0, i32 15
  %117 = load ptr, ptr %4, align 8, !tbaa !9
  %118 = load i64, ptr %6, align 8, !tbaa !14
  %119 = getelementptr inbounds nuw i8, ptr %117, i64 %118
  call void @llvm.memcpy.p0.p0.i64(ptr align 8 %116, ptr align 1 %119, i64 4, i1 false)
  %120 = load i64, ptr %6, align 8, !tbaa !14
  %121 = add i64 %120, 4
  store i64 %121, ptr %6, align 8, !tbaa !14
  store i64 0, ptr %5, align 8, !tbaa !14
  br label %122

122:                                              ; preds = %135, %2
  %123 = load i64, ptr %5, align 8, !tbaa !14
  %124 = icmp ult i64 %123, 109
  br i1 %124, label %125, label %138

125:                                              ; preds = %122
  %126 = load ptr, ptr %3, align 8, !tbaa !16
  %127 = getelementptr inbounds nuw %struct.cdf_header_t, ptr %126, i32 0, i32 16
  %128 = load i64, ptr %5, align 8, !tbaa !14
  %129 = getelementptr inbounds nuw [109 x i32], ptr %127, i64 0, i64 %128
  %130 = load ptr, ptr %4, align 8, !tbaa !9
  %131 = load i64, ptr %6, align 8, !tbaa !14
  %132 = getelementptr inbounds nuw i8, ptr %130, i64 %131
  call void @llvm.memcpy.p0.p0.i64(ptr align 4 %129, ptr align 1 %132, i64 4, i1 false)
  %133 = load i64, ptr %6, align 8, !tbaa !14
  %134 = add i64 %133, 4
  store i64 %134, ptr %6, align 8, !tbaa !14
  br label %135

135:                                              ; preds = %125
  %136 = load i64, ptr %5, align 8, !tbaa !14
  %137 = add i64 %136, 1
  store i64 %137, ptr %5, align 8, !tbaa !14
  br label %122

138:                                              ; preds = %122
  call void @llvm.lifetime.end.p0(i64 8, ptr %6) #13
  call void @llvm.lifetime.end.p0(i64 8, ptr %5) #13
  ret void
}