; Function Attrs: nofree norecurse nosync nounwind memory(argmem: readwrite) uwtable
define hidden void @cdf_unpack_header(ptr noundef writeonly captures(none) initializes((0, 76)) %0, ptr noundef readonly captures(none) %1) local_unnamed_addr #3 {
  %3 = load i64, ptr %1, align 1
  store i64 %3, ptr %0, align 8
  %4 = getelementptr inbounds nuw i8, ptr %0, i64 8
  %5 = getelementptr inbounds nuw i8, ptr %1, i64 8
  tail call void @llvm.memcpy.p0.p0.i64(ptr noundef nonnull align 8 dereferenceable(16) %4, ptr noundef nonnull align 1 dereferenceable(16) %5, i64 16, i1 false)
  %6 = getelementptr inbounds nuw i8, ptr %0, i64 24
  %7 = getelementptr inbounds nuw i8, ptr %1, i64 24
  %8 = load i16, ptr %7, align 1
  store i16 %8, ptr %6, align 8
  %9 = getelementptr inbounds nuw i8, ptr %0, i64 26
  %10 = getelementptr inbounds nuw i8, ptr %1, i64 26
  %11 = load i16, ptr %10, align 1
  store i16 %11, ptr %9, align 2
  %12 = getelementptr inbounds nuw i8, ptr %0, i64 28
  %13 = getelementptr inbounds nuw i8, ptr %1, i64 28
  %14 = load i16, ptr %13, align 1
  store i16 %14, ptr %12, align 4
  %15 = getelementptr inbounds nuw i8, ptr %0, i64 30
  %16 = getelementptr inbounds nuw i8, ptr %1, i64 30
  %17 = load i16, ptr %16, align 1
  store i16 %17, ptr %15, align 2
  %18 = getelementptr inbounds nuw i8, ptr %0, i64 32
  %19 = getelementptr inbounds nuw i8, ptr %1, i64 32
  %20 = load i16, ptr %19, align 1
  store i16 %20, ptr %18, align 8
  %21 = getelementptr inbounds nuw i8, ptr %0, i64 34
  %22 = getelementptr inbounds nuw i8, ptr %1, i64 34
  tail call void @llvm.memcpy.p0.p0.i64(ptr noundef nonnull align 2 dereferenceable(10) %21, ptr noundef nonnull align 1 dereferenceable(10) %22, i64 10, i1 false)
  %23 = getelementptr inbounds nuw i8, ptr %0, i64 44
  %24 = getelementptr inbounds nuw i8, ptr %1, i64 44
  %25 = load i32, ptr %24, align 1
  store i32 %25, ptr %23, align 4
  %26 = getelementptr inbounds nuw i8, ptr %0, i64 48
  %27 = getelementptr inbounds nuw i8, ptr %1, i64 48
  %28 = load i32, ptr %27, align 1
  store i32 %28, ptr %26, align 8
  %29 = getelementptr inbounds nuw i8, ptr %0, i64 52
  %30 = getelementptr inbounds nuw i8, ptr %1, i64 52
  %31 = load i32, ptr %30, align 1
  store i32 %31, ptr %29, align 4
  %32 = getelementptr inbounds nuw i8, ptr %0, i64 56
  %33 = getelementptr inbounds nuw i8, ptr %1, i64 56
  %34 = load i32, ptr %33, align 1
  store i32 %34, ptr %32, align 8
  %35 = getelementptr inbounds nuw i8, ptr %0, i64 60
  %36 = getelementptr inbounds nuw i8, ptr %1, i64 60
  %37 = load i32, ptr %36, align 1
  store i32 %37, ptr %35, align 4
  %38 = getelementptr inbounds nuw i8, ptr %0, i64 64
  %39 = getelementptr inbounds nuw i8, ptr %1, i64 64
  %40 = load i32, ptr %39, align 1
  store i32 %40, ptr %38, align 8
  %41 = getelementptr inbounds nuw i8, ptr %0, i64 68
  %42 = getelementptr inbounds nuw i8, ptr %1, i64 68
  %43 = load i32, ptr %42, align 1
  store i32 %43, ptr %41, align 4
  %44 = getelementptr inbounds nuw i8, ptr %0, i64 72
  %45 = getelementptr inbounds nuw i8, ptr %1, i64 72
  %46 = load i32, ptr %45, align 1
  store i32 %46, ptr %44, align 8
  %47 = getelementptr inbounds nuw i8, ptr %0, i64 76
  br label %48

48:                                               ; preds = %2, %48
  %.072 = phi i64 [ 76, %2 ], [ %52, %48 ]
  %.07071 = phi i64 [ 0, %2 ], [ %53, %48 ]
  %49 = getelementptr inbounds nuw [109 x i32], ptr %47, i64 0, i64 %.07071
  %50 = getelementptr inbounds nuw i8, ptr %1, i64 %.072
  %51 = load i32, ptr %50, align 1
  store i32 %51, ptr %49, align 4
  %52 = add nuw nsw i64 %.072, 4
  %53 = add nuw nsw i64 %.07071, 1
  %exitcond.not = icmp eq i64 %53, 109
  br i1 %exitcond.not, label %54, label %48

54:                                               ; preds = %48
  ret void
}